; ModuleID = 'source-C-CXX/59/119.c'
source_filename = "source-C-CXX/59/119.c"
target datalayout = "e-m:e-p270:32:32-p271:32:32-p272:64:64-i64:64-f80:128-n8:16:32:64-S128"
target triple = "x86_64-pc-linux-gnu"

@.str = private unnamed_addr constant [3 x i8] c"%d\00", align 1
@.str.1 = private unnamed_addr constant [7 x i8] c"%d %d\0A\00", align 1
@.str.2 = private unnamed_addr constant [6 x i8] c"empty\00", align 1

; Function Attrs: nofree norecurse nosync nounwind readnone sspstrong uwtable
define dso_local i32 @sushu(i32 %0) local_unnamed_addr #0 {
  %2 = icmp slt i32 %0, 4
  br i1 %2, label %12, label %3

3:                                                ; preds = %1
  %4 = lshr i32 %0, 1
  br label %8

5:                                                ; preds = %8
  %6 = add nuw nsw i32 %9, 1
  %7 = icmp eq i32 %9, %4
  br i1 %7, label %12, label %8, !llvm.loop !5

8:                                                ; preds = %3, %5
  %9 = phi i32 [ %6, %5 ], [ 2, %3 ]
  %10 = srem i32 %0, %9
  %11 = icmp eq i32 %10, 0
  br i1 %11, label %12, label %5

12:                                               ; preds = %8, %5, %1
  %13 = phi i32 [ 1, %1 ], [ 1, %5 ], [ 0, %8 ]
  ret i32 %13
}

; Function Attrs: argmemonly mustprogress nofree nosync nounwind willreturn
declare void @llvm.lifetime.start.p0i8(i64 immarg, i8* nocapture) #1

; Function Attrs: argmemonly mustprogress nofree nosync nounwind willreturn
declare void @llvm.lifetime.end.p0i8(i64 immarg, i8* nocapture) #1

; Function Attrs: nofree nounwind sspstrong uwtable
define dso_local void @main() local_unnamed_addr #2 {
  %1 = alloca i32, align 4
  %2 = bitcast i32* %1 to i8*
  call void @llvm.lifetime.start.p0i8(i64 4, i8* nonnull %2) #4
  store i32 0, i32* %1, align 4, !tbaa !7
  %3 = call i32 (i8*, ...) @__isoc99_scanf(i8* getelementptr inbounds ([3 x i8], [3 x i8]* @.str, i64 0, i64 0), i32* nonnull %1)
  %4 = load i32, i32* %1, align 4, !tbaa !7
  %5 = icmp slt i32 %4, 5
  br i1 %5, label %41, label %6

6:                                                ; preds = %0, %33
  %7 = phi i32 [ %34, %33 ], [ %4, %0 ]
  %8 = phi i32 [ %35, %33 ], [ 0, %0 ]
  %9 = phi i32 [ %36, %33 ], [ 3, %0 ]
  %10 = icmp ult i32 %9, 4
  br i1 %10, label %20, label %11

11:                                               ; preds = %6
  %12 = lshr i32 %9, 1
  br label %16

13:                                               ; preds = %16
  %14 = add nuw nsw i32 %17, 1
  %15 = icmp eq i32 %17, %12
  br i1 %15, label %20, label %16, !llvm.loop !5

16:                                               ; preds = %13, %11
  %17 = phi i32 [ %14, %13 ], [ 2, %11 ]
  %18 = urem i32 %9, %17
  %19 = icmp eq i32 %18, 0
  br i1 %19, label %33, label %13

20:                                               ; preds = %13, %6
  %21 = add nuw nsw i32 %9, 2
  %22 = lshr i32 %21, 1
  br label %26

23:                                               ; preds = %26
  %24 = add nuw nsw i32 %27, 1
  %25 = icmp eq i32 %27, %22
  br i1 %25, label %30, label %26, !llvm.loop !5

26:                                               ; preds = %23, %20
  %27 = phi i32 [ %24, %23 ], [ 2, %20 ]
  %28 = urem i32 %21, %27
  %29 = icmp eq i32 %28, 0
  br i1 %29, label %33, label %23

30:                                               ; preds = %23
  %31 = call i32 (i8*, ...) @printf(i8* nonnull dereferenceable(1) getelementptr inbounds ([7 x i8], [7 x i8]* @.str.1, i64 0, i64 0), i32 %9, i32 %21)
  %32 = load i32, i32* %1, align 4, !tbaa !7
  br label %33

33:                                               ; preds = %16, %26, %30
  %34 = phi i32 [ %32, %30 ], [ %7, %26 ], [ %7, %16 ]
  %35 = phi i32 [ 1, %30 ], [ %8, %26 ], [ %8, %16 ]
  %36 = add nuw nsw i32 %9, 1
  %37 = add nsw i32 %34, -2
  %38 = icmp slt i32 %9, %37
  br i1 %38, label %6, label %39, !llvm.loop !11

39:                                               ; preds = %33
  %40 = icmp eq i32 %35, 0
  br i1 %40, label %41, label %43

41:                                               ; preds = %0, %39
  %42 = call i32 (i8*, ...) @printf(i8* nonnull dereferenceable(1) getelementptr inbounds ([6 x i8], [6 x i8]* @.str.2, i64 0, i64 0))
  br label %43

43:                                               ; preds = %41, %39
  call void @llvm.lifetime.end.p0i8(i64 4, i8* nonnull %2) #4
  ret void
}

; Function Attrs: nofree nounwind
declare noundef i32 @__isoc99_scanf(i8* nocapture noundef readonly, ...) local_unnamed_addr #3

; Function Attrs: nofree nounwind
declare noundef i32 @printf(i8* nocapture noundef readonly, ...) local_unnamed_addr #3


!llvm.module.flags = !{!0, !1, !2, !3}
!llvm.ident = !{!4}

!0 = !{i32 1, !"wchar_size", i32 4}
!1 = !{i32 7, !"PIC Level", i32 2}
!2 = !{i32 7, !"PIE Level", i32 2}
!3 = !{i32 7, !"uwtable", i32 1}
!4 = !{!"clang version 13.0.0"}
!5 = distinct !{!5, !6}
!6 = !{!"llvm.loop.mustprogress"}
!7 = !{!8, !8, i64 0}
!8 = !{!"int", !9, i64 0}
!9 = !{!"omnipotent char", !10, i64 0}
!10 = !{!"Simple C/C++ TBAA"}
!11 = distinct !{!11, !6}
